target datalayout = "e-m:e-p270:32:32-p271:32:32-p272:64:64-i64:64-i128:128-f80:128-n8:16:32:64-S128"
target triple = "x86_64-pc-linux-gnu"

%struct.pg_unicode_decomposition = type { i32, i8, i8, i16 }
%struct.pg_unicode_decompinfo = type { ptr, ptr, i32 }
%struct.pg_unicode_norminfo = type { ptr, ptr, i32 }
%struct.pg_unicode_normprops = type { i32 }

@__const.get_code_entry.decompinfo = private unnamed_addr constant { ptr, ptr, i32, [4 x i8] } { ptr @UnicodeDecompMain, ptr @Decomp_hash_func, i32 6775, [4 x i8] zeroinitializer }, align 8
@UnicodeNormInfo_NFC_QC = internal constant { ptr, ptr, i32, [4 x i8] } { ptr @UnicodeNormProps_NFC_QC, ptr @NFC_QC_hash_func, i32 1231, [4 x i8] zeroinitializer }, align 8
@UnicodeNormInfo_NFKC_QC = internal constant { ptr, ptr, i32, [4 x i8] } { ptr @UnicodeNormProps_NFKC_QC, ptr @NFKC_QC_hash_func, i32 5039, [4 x i8] zeroinitializer }, align 8

; Function Attrs: nounwind uwtable
define internal ptr @qc_hash_lookup(i32 noundef %0, ptr noundef %1) #0 {
  %3 = alloca ptr, align 8
  %4 = alloca i32, align 4
  %5 = alloca ptr, align 8
  %6 = alloca i32, align 4
  %7 = alloca i32, align 4
  %8 = alloca i32, align 4
  store i32 %0, ptr %4, align 4
  store ptr %1, ptr %5, align 8
  call void @llvm.lifetime.start.p0(i64 4, ptr %6) #5
  call void @llvm.lifetime.start.p0(i64 4, ptr %7) #5
  %9 = load i32, ptr %4, align 4
  %10 = call i32 @llvm.bswap.i32(i32 %9)
  store i32 %10, ptr %7, align 4
  %11 = load ptr, ptr %5, align 8
  %12 = getelementptr inbounds nuw %struct.pg_unicode_norminfo, ptr %11, i32 0, i32 1
  %13 = load ptr, ptr %12, align 8
  %14 = call i32 %13(ptr noundef %7)
  store i32 %14, ptr %6, align 4
  %15 = load i32, ptr %6, align 4
  %16 = icmp slt i32 %15, 0
  br i1 %16, label %23, label %17

17:                                               ; preds = %2
  %18 = load i32, ptr %6, align 4
  %19 = load ptr, ptr %5, align 8
  %20 = getelementptr inbounds nuw %struct.pg_unicode_norminfo, ptr %19, i32 0, i32 2
  %21 = load i32, ptr %20, align 8
  %22 = icmp sge i32 %18, %21
  br i1 %22, label %23, label %24

23:                                               ; preds = %17, %2
  store ptr null, ptr %3, align 8
  store i32 1, ptr %8, align 4
  br label %43

24:                                               ; preds = %17
  %25 = load i32, ptr %4, align 4
  %26 = load ptr, ptr %5, align 8
  %27 = getelementptr inbounds nuw %struct.pg_unicode_norminfo, ptr %26, i32 0, i32 0
  %28 = load ptr, ptr %27, align 8
  %29 = load i32, ptr %6, align 4
  %30 = sext i32 %29 to i64
  %31 = getelementptr inbounds %struct.pg_unicode_normprops, ptr %28, i64 %30
  %32 = load i32, ptr %31, align 4
  %33 = and i32 %32, 2097151
  %34 = icmp ne i32 %25, %33
  br i1 %34, label %35, label %36

35:                                               ; preds = %24
  store ptr null, ptr %3, align 8
  store i32 1, ptr %8, align 4
  br label %43

36:                                               ; preds = %24
  %37 = load ptr, ptr %5, align 8
  %38 = getelementptr inbounds nuw %struct.pg_unicode_norminfo, ptr %37, i32 0, i32 0
  %39 = load ptr, ptr %38, align 8
  %40 = load i32, ptr %6, align 4
  %41 = sext i32 %40 to i64
  %42 = getelementptr inbounds %struct.pg_unicode_normprops, ptr %39, i64 %41
  store ptr %42, ptr %3, align 8
  store i32 1, ptr %8, align 4
  br label %43

43:                                               ; preds = %36, %35, %23
  call void @llvm.lifetime.end.p0(i64 4, ptr %7) #5
  call void @llvm.lifetime.end.p0(i64 4, ptr %6) #5
  %44 = load ptr, ptr %3, align 8
  ret ptr %44
}

; Function Attrs: nounwind uwtable
define internal ptr @get_code_entry(i32 noundef %0) #0 {
  %2 = alloca ptr, align 8
  %3 = alloca i32, align 4
  %4 = alloca i32, align 4
  %5 = alloca i32, align 4
  %6 = alloca %struct.pg_unicode_decompinfo, align 8
  %7 = alloca i32, align 4
  store i32 %0, ptr %3, align 4
  call void @llvm.lifetime.start.p0(i64 4, ptr %4) #5
  call void @llvm.lifetime.start.p0(i64 4, ptr %5) #5
  call void @llvm.lifetime.start.p0(i64 24, ptr %6) #5
  call void @llvm.memcpy.p0.p0.i64(ptr align 8 %6, ptr align 8 @__const.get_code_entry.decompinfo, i64 24, i1 false)
  %8 = load i32, ptr %3, align 4
  %9 = call i32 @llvm.bswap.i32(i32 %8)
  store i32 %9, ptr %5, align 4
  %10 = getelementptr inbounds nuw %struct.pg_unicode_decompinfo, ptr %6, i32 0, i32 1
  %11 = load ptr, ptr %10, align 8
  %12 = call i32 %11(ptr noundef %5)
  store i32 %12, ptr %4, align 4
  %13 = load i32, ptr %4, align 4
  %14 = icmp slt i32 %13, 0
  br i1 %14, label %20, label %15

15:                                               ; preds = %1
  %16 = load i32, ptr %4, align 4
  %17 = getelementptr inbounds nuw %struct.pg_unicode_decompinfo, ptr %6, i32 0, i32 2
  %18 = load i32, ptr %17, align 8
  %19 = icmp sge i32 %16, %18
  br i1 %19, label %20, label %21

20:                                               ; preds = %15, %1
  store ptr null, ptr %2, align 8
  store i32 1, ptr %7, align 4
  br label %38

21:                                               ; preds = %15
  %22 = load i32, ptr %3, align 4
  %23 = getelementptr inbounds nuw %struct.pg_unicode_decompinfo, ptr %6, i32 0, i32 0
  %24 = load ptr, ptr %23, align 8
  %25 = load i32, ptr %4, align 4
  %26 = sext i32 %25 to i64
  %27 = getelementptr inbounds %struct.pg_unicode_decomposition, ptr %24, i64 %26
  %28 = getelementptr inbounds nuw %struct.pg_unicode_decomposition, ptr %27, i32 0, i32 0
  %29 = load i32, ptr %28, align 4
  %30 = icmp ne i32 %22, %29
  br i1 %30, label %31, label %32

31:                                               ; preds = %21
  store ptr null, ptr %2, align 8
  store i32 1, ptr %7, align 4
  br label %38

32:                                               ; preds = %21
  %33 = getelementptr inbounds nuw %struct.pg_unicode_decompinfo, ptr %6, i32 0, i32 0
  %34 = load ptr, ptr %33, align 8
  %35 = load i32, ptr %4, align 4
  %36 = sext i32 %35 to i64
  %37 = getelementptr inbounds %struct.pg_unicode_decomposition, ptr %34, i64 %36
  store ptr %37, ptr %2, align 8
  store i32 1, ptr %7, align 4
  br label %38

38:                                               ; preds = %32, %31, %20
  call void @llvm.lifetime.end.p0(i64 24, ptr %6) #5
  call void @llvm.lifetime.end.p0(i64 4, ptr %5) #5
  call void @llvm.lifetime.end.p0(i64 4, ptr %4) #5
  %39 = load ptr, ptr %2, align 8
  ret ptr %39
}

; Function Attrs: nounwind uwtable
define internal i32 @qc_is_allowed(i32 noundef %0, i32 noundef %1) #0 {
  %3 = alloca i32, align 4
  %4 = alloca i32, align 4
  %5 = alloca i32, align 4
  %6 = alloca ptr, align 8
  %7 = alloca i32, align 4
  store i32 %0, ptr %4, align 4
  store i32 %1, ptr %5, align 4
  call void @llvm.lifetime.start.p0(i64 8, ptr %6) #5
  store ptr null, ptr %6, align 8
  %8 = load i32, ptr %4, align 4
  switch i32 %8, label %15 [
    i32 0, label %9
    i32 2, label %12
  ]

9:                                                ; preds = %2
  %10 = load i32, ptr %5, align 4
  %11 = call ptr @qc_hash_lookup(i32 noundef %10, ptr noundef @UnicodeNormInfo_NFC_QC)
  store ptr %11, ptr %6, align 8
  br label %16

12:                                               ; preds = %2
  %13 = load i32, ptr %5, align 4
  %14 = call ptr @qc_hash_lookup(i32 noundef %13, ptr noundef @UnicodeNormInfo_NFKC_QC)
  store ptr %14, ptr %6, align 8
  br label %16

15:                                               ; preds = %2
  br label %16

16:                                               ; preds = %15, %12, %9
  %17 = load ptr, ptr %6, align 8
  %18 = icmp ne ptr %17, null
  br i1 %18, label %19, label %24

19:                                               ; preds = %16
  %20 = load ptr, ptr %6, align 8
  %21 = load i32, ptr %20, align 4
  %22 = shl i32 %21, 7
  %23 = ashr i32 %22, 28
  store i32 %23, ptr %3, align 4
  store i32 1, ptr %7, align 4
  br label %25

24:                                               ; preds = %16
  store i32 1, ptr %3, align 4
  store i32 1, ptr %7, align 4
  br label %25

25:                                               ; preds = %24, %19
  call void @llvm.lifetime.end.p0(i64 8, ptr %6) #5
  %26 = load i32, ptr %3, align 4
  ret i32 %26
}

; Function Attrs: nounwind uwtable
define internal zeroext i8 @get_canonical_class(i32 noundef %0) #0 {
  %2 = alloca i8, align 1
  %3 = alloca i32, align 4
  %4 = alloca ptr, align 8
  %5 = alloca i32, align 4
  store i32 %0, ptr %3, align 4
  call void @llvm.lifetime.start.p0(i64 8, ptr %4) #5
  %6 = load i32, ptr %3, align 4
  %7 = call ptr @get_code_entry(i32 noundef %6)
  store ptr %7, ptr %4, align 8
  %8 = load ptr, ptr %4, align 8
  %9 = icmp ne ptr %8, null
  br i1 %9, label %11, label %10

10:                                               ; preds = %1
  store i8 0, ptr %2, align 1
  store i32 1, ptr %5, align 4
  br label %15

11:                                               ; preds = %1
  %12 = load ptr, ptr %4, align 8
  %13 = getelementptr inbounds nuw %struct.pg_unicode_decomposition, ptr %12, i32 0, i32 1
  %14 = load i8, ptr %13, align 4
  store i8 %14, ptr %2, align 1
  store i32 1, ptr %5, align 4
  br label %15

15:                                               ; preds = %11, %10
  call void @llvm.lifetime.end.p0(i64 8, ptr %4) #5
  %16 = load i8, ptr %2, align 1
  ret i8 %16
}

; Function Attrs: nounwind uwtable
define dso_local i32 @unicode_is_normalized_quickcheck(i32 noundef %0, ptr noundef %1) #0 {
  %3 = alloca i32, align 4
  %4 = alloca i32, align 4
  %5 = alloca ptr, align 8
  %6 = alloca i8, align 1
  %7 = alloca i32, align 4
  %8 = alloca i32, align 4
  %9 = alloca ptr, align 8
  %10 = alloca i32, align 4
  %11 = alloca i8, align 1
  %12 = alloca i32, align 4
  store i32 %0, ptr %4, align 4
  store ptr %1, ptr %5, align 8
  call void @llvm.lifetime.start.p0(i64 1, ptr %6) #5
  store i8 0, ptr %6, align 1
  call void @llvm.lifetime.start.p0(i64 4, ptr %7) #5
  store i32 1, ptr %7, align 4
  %13 = load i32, ptr %4, align 4
  %14 = icmp eq i32 %13, 1
  br i1 %14, label %18, label %15

15:                                               ; preds = %2
  %16 = load i32, ptr %4, align 4
  %17 = icmp eq i32 %16, 3
  br i1 %17, label %18, label %19

18:                                               ; preds = %15, %2
  store i32 -1, ptr %3, align 4
  store i32 1, ptr %8, align 4
  br label %65

19:                                               ; preds = %15
  call void @llvm.lifetime.start.p0(i64 8, ptr %9) #5
  %20 = load ptr, ptr %5, align 8
  store ptr %20, ptr %9, align 8
  br label %21

21:                                               ; preds = %58, %19
  %22 = load ptr, ptr %9, align 8
  %23 = load i32, ptr %22, align 4
  %24 = icmp ne i32 %23, 0
  br i1 %24, label %26, label %25

25:                                               ; preds = %21
  store i32 2, ptr %8, align 4
  br label %61

26:                                               ; preds = %21
  call void @llvm.lifetime.start.p0(i64 4, ptr %10) #5
  %27 = load ptr, ptr %9, align 8
  %28 = load i32, ptr %27, align 4
  store i32 %28, ptr %10, align 4
  call void @llvm.lifetime.start.p0(i64 1, ptr %11) #5
  call void @llvm.lifetime.start.p0(i64 4, ptr %12) #5
  %29 = load i32, ptr %10, align 4
  %30 = call zeroext i8 @get_canonical_class(i32 noundef %29)
  store i8 %30, ptr %11, align 1
  %31 = load i8, ptr %6, align 1
  %32 = zext i8 %31 to i32
  %33 = load i8, ptr %11, align 1
  %34 = zext i8 %33 to i32
  %35 = icmp sgt i32 %32, %34
  br i1 %35, label %36, label %41

36:                                               ; preds = %26
  %37 = load i8, ptr %11, align 1
  %38 = zext i8 %37 to i32
  %39 = icmp ne i32 %38, 0
  br i1 %39, label %40, label %41

40:                                               ; preds = %36
  store i32 0, ptr %3, align 4
  store i32 1, ptr %8, align 4
  br label %55

41:                                               ; preds = %36, %26
  %42 = load i32, ptr %4, align 4
  %43 = load i32, ptr %10, align 4
  %44 = call i32 @qc_is_allowed(i32 noundef %42, i32 noundef %43)
  store i32 %44, ptr %12, align 4
  %45 = load i32, ptr %12, align 4
  %46 = icmp eq i32 %45, 0
  br i1 %46, label %47, label %48

47:                                               ; preds = %41
  store i32 0, ptr %3, align 4
  store i32 1, ptr %8, align 4
  br label %55

48:                                               ; preds = %41
  %49 = load i32, ptr %12, align 4
  %50 = icmp eq i32 %49, -1
  br i1 %50, label %51, label %52

51:                                               ; preds = %48
  store i32 -1, ptr %7, align 4
  br label %52

52:                                               ; preds = %51, %48
  br label %53

53:                                               ; preds = %52
  %54 = load i8, ptr %11, align 1
  store i8 %54, ptr %6, align 1
  store i32 0, ptr %8, align 4
  br label %55

55:                                               ; preds = %53, %47, %40
  call void @llvm.lifetime.end.p0(i64 4, ptr %12) #5
  call void @llvm.lifetime.end.p0(i64 1, ptr %11) #5
  call void @llvm.lifetime.end.p0(i64 4, ptr %10) #5
  %56 = load i32, ptr %8, align 4
  switch i32 %56, label %61 [
    i32 0, label %57
  ]

57:                                               ; preds = %55
  br label %58

58:                                               ; preds = %57
  %59 = load ptr, ptr %9, align 8
  %60 = getelementptr inbounds nuw i32, ptr %59, i32 1
  store ptr %60, ptr %9, align 8
  br label %21, !llvm.loop !13

61:                                               ; preds = %55, %25
  call void @llvm.lifetime.end.p0(i64 8, ptr %9) #5
  %62 = load i32, ptr %8, align 4
  switch i32 %62, label %65 [
    i32 2, label %63
  ]

63:                                               ; preds = %61
  %64 = load i32, ptr %7, align 4
  store i32 %64, ptr %3, align 4
  store i32 1, ptr %8, align 4
  br label %65

65:                                               ; preds = %63, %61, %18
  call void @llvm.lifetime.end.p0(i64 4, ptr %7) #5
  call void @llvm.lifetime.end.p0(i64 1, ptr %6) #5
  %66 = load i32, ptr %3, align 4
  ret i32 %66
}