; Function Attrs: nofree norecurse nosync nounwind memory(read, inaccessiblemem: none) uwtable
define dso_local range(i32 -1, 2) i32 @unicode_is_normalized_quickcheck(i32 noundef %0, ptr noundef readonly captures(none) %1) local_unnamed_addr #5 {
  %3 = alloca i32, align 4
  %4 = alloca i32, align 4
  %5 = alloca i32, align 4
  %6 = and i32 %0, -3
  %or.cond = icmp eq i32 %6, 1
  br i1 %or.cond, label %.loopexit, label %.preheader

.preheader:                                       ; preds = %2
  %7 = load i32, ptr %1, align 4
  %.not50 = icmp eq i32 %7, 0
  br i1 %.not50, label %.loopexit, label %.lr.ph

.lr.ph:                                           ; preds = %.preheader, %95
  %8 = phi i32 [ %97, %95 ], [ %7, %.preheader ]
  %.02353 = phi i8 [ %.0.i38, %95 ], [ 0, %.preheader ]
  %.02552 = phi i32 [ %.227.ph, %95 ], [ 1, %.preheader ]
  %.02951 = phi ptr [ %96, %95 ], [ %1, %.preheader ]
  call void @llvm.lifetime.start.p0(i64 4, ptr nonnull %5) #7
  %9 = tail call i32 @llvm.bswap.i32(i32 %8)
  store i32 %9, ptr %5, align 4
  br label %10

10:                                               ; preds = %10, %.lr.ph
  %.014.i.i.i = phi ptr [ %5, %.lr.ph ], [ %12, %10 ]
  %.0813.i.i.i = phi i32 [ 1, %.lr.ph ], [ %18, %10 ]
  %.0912.i.i.i = phi i32 [ 0, %.lr.ph ], [ %16, %10 ]
  %.01011.i.i.i = phi i64 [ 4, %.lr.ph ], [ %11, %10 ]
  %11 = add nsw i64 %.01011.i.i.i, -1
  %12 = getelementptr inbounds nuw i8, ptr %.014.i.i.i, i64 1
  %13 = load i8, ptr %.014.i.i.i, align 1
  %14 = mul i32 %.0912.i.i.i, 257
  %15 = zext i8 %13 to i32
  %16 = add i32 %14, %15
  %17 = mul i32 %.0813.i.i.i, 8191
  %18 = add i32 %17, %15
  %.not.i.i.i = icmp eq i64 %11, 0
  br i1 %.not.i.i.i, label %Decomp_hash_func.exit.i.i, label %10, !llvm.loop !7

Decomp_hash_func.exit.i.i:                        ; preds = %10
  %19 = urem i32 %16, 13551
  %20 = zext nneg i32 %19 to i64
  %21 = getelementptr inbounds nuw [13551 x i16], ptr @Decomp_hash_func.h, i64 0, i64 %20
  %22 = load i16, ptr %21, align 2
  %23 = sext i16 %22 to i32
  %24 = urem i32 %18, 13551
  %25 = zext nneg i32 %24 to i64
  %26 = getelementptr inbounds nuw [13551 x i16], ptr @Decomp_hash_func.h, i64 0, i64 %25
  %27 = load i16, ptr %26, align 2
  %28 = sext i16 %27 to i32
  %29 = add nsw i32 %28, %23
  %or.cond.i.i = icmp ugt i32 %29, 6774
  br i1 %or.cond.i.i, label %get_canonical_class.exit.thread, label %30

30:                                               ; preds = %Decomp_hash_func.exit.i.i
  %31 = zext nneg i32 %29 to i64
  %32 = getelementptr inbounds nuw %struct.pg_unicode_decomposition, ptr @UnicodeDecompMain, i64 %31
  %33 = load i32, ptr %32, align 8
  %.not.i.i = icmp eq i32 %8, %33
  br i1 %.not.i.i, label %get_canonical_class.exit, label %get_canonical_class.exit.thread

get_canonical_class.exit.thread:                  ; preds = %Decomp_hash_func.exit.i.i, %30
  call void @llvm.lifetime.end.p0(i64 4, ptr nonnull %5) #7
  br label %38

get_canonical_class.exit:                         ; preds = %30
  call void @llvm.lifetime.end.p0(i64 4, ptr nonnull %5) #7
  %34 = getelementptr inbounds nuw i8, ptr %32, i64 4
  %35 = load i8, ptr %34, align 4
  %36 = icmp ugt i8 %.02353, %35
  %37 = icmp ne i8 %35, 0
  %or.cond5 = and i1 %36, %37
  br i1 %or.cond5, label %.loopexit, label %38

38:                                               ; preds = %get_canonical_class.exit.thread, %get_canonical_class.exit
  %.0.i38 = phi i8 [ 0, %get_canonical_class.exit.thread ], [ %35, %get_canonical_class.exit ]
  switch i32 %0, label %qc_is_allowed.exit.thread [
    i32 0, label %39
    i32 2, label %65
  ]

39:                                               ; preds = %38
  call void @llvm.lifetime.start.p0(i64 4, ptr nonnull %4) #7
  store i32 %9, ptr %4, align 4
  br label %40

40:                                               ; preds = %40, %39
  %.014.i.i = phi ptr [ %4, %39 ], [ %42, %40 ]
  %.0813.i.i = phi i32 [ 0, %39 ], [ %48, %40 ]
  %.0912.i.i = phi i32 [ 0, %39 ], [ %46, %40 ]
  %.01011.i.i = phi i64 [ 4, %39 ], [ %41, %40 ]
  %41 = add nsw i64 %.01011.i.i, -1
  %42 = getelementptr inbounds nuw i8, ptr %.014.i.i, i64 1
  %43 = load i8, ptr %.014.i.i, align 1
  %44 = mul i32 %.0912.i.i, 257
  %45 = zext i8 %43 to i32
  %46 = add i32 %44, %45
  %47 = mul i32 %.0813.i.i, 17
  %48 = add i32 %47, %45
  %.not.i11.i = icmp eq i64 %41, 0
  br i1 %.not.i11.i, label %NFC_QC_hash_func.exit.i, label %40, !llvm.loop !13

NFC_QC_hash_func.exit.i:                          ; preds = %40
  %49 = urem i32 %46, 2463
  %50 = zext nneg i32 %49 to i64
  %51 = getelementptr inbounds nuw [2463 x i16], ptr @NFC_QC_hash_func.h, i64 0, i64 %50
  %52 = load i16, ptr %51, align 2
  %53 = sext i16 %52 to i32
  %54 = urem i32 %48, 2463
  %55 = zext nneg i32 %54 to i64
  %56 = getelementptr inbounds nuw [2463 x i16], ptr @NFC_QC_hash_func.h, i64 0, i64 %55
  %57 = load i16, ptr %56, align 2
  %58 = sext i16 %57 to i32
  %59 = add nsw i32 %58, %53
  %or.cond.i = icmp ult i32 %59, 1231
  br i1 %or.cond.i, label %60, label %qc_hash_lookup.exit.i

60:                                               ; preds = %NFC_QC_hash_func.exit.i
  %61 = zext nneg i32 %59 to i64
  %62 = getelementptr inbounds nuw %struct.pg_unicode_normprops, ptr @UnicodeNormProps_NFC_QC, i64 %61
  %63 = load i32, ptr %62, align 4
  %64 = and i32 %63, 2097151
  %.not11.i.i = icmp eq i32 %8, %64
  %..i.i = select i1 %.not11.i.i, ptr %62, ptr null
  br label %qc_hash_lookup.exit.i

qc_hash_lookup.exit.i:                            ; preds = %60, %NFC_QC_hash_func.exit.i
  %.0.i.i = phi ptr [ null, %NFC_QC_hash_func.exit.i ], [ %..i.i, %60 ]
  call void @llvm.lifetime.end.p0(i64 4, ptr nonnull %4) #7
  br label %91

65:                                               ; preds = %38
  call void @llvm.lifetime.start.p0(i64 4, ptr nonnull %3) #7
  store i32 %9, ptr %3, align 4
  br label %66

66:                                               ; preds = %66, %65
  %.014.i12.i = phi ptr [ %3, %65 ], [ %68, %66 ]
  %.0813.i13.i = phi i32 [ 1, %65 ], [ %74, %66 ]
  %.0912.i14.i = phi i32 [ 0, %65 ], [ %72, %66 ]
  %.01011.i15.i = phi i64 [ 4, %65 ], [ %67, %66 ]
  %67 = add nsw i64 %.01011.i15.i, -1
  %68 = getelementptr inbounds nuw i8, ptr %.014.i12.i, i64 1
  %69 = load i8, ptr %.014.i12.i, align 1
  %70 = mul i32 %.0912.i14.i, 257
  %71 = zext i8 %69 to i32
  %72 = add i32 %70, %71
  %73 = mul i32 %.0813.i13.i, 8191
  %74 = add i32 %73, %71
  %.not.i16.i = icmp eq i64 %67, 0
  br i1 %.not.i16.i, label %NFKC_QC_hash_func.exit.i, label %66, !llvm.loop !14

NFKC_QC_hash_func.exit.i:                         ; preds = %66
  %75 = urem i32 %72, 10079
  %76 = zext nneg i32 %75 to i64
  %77 = getelementptr inbounds nuw [10079 x i16], ptr @NFKC_QC_hash_func.h, i64 0, i64 %76
  %78 = load i16, ptr %77, align 2
  %79 = sext i16 %78 to i32
  %80 = urem i32 %74, 10079
  %81 = zext nneg i32 %80 to i64
  %82 = getelementptr inbounds nuw [10079 x i16], ptr @NFKC_QC_hash_func.h, i64 0, i64 %81
  %83 = load i16, ptr %82, align 2
  %84 = sext i16 %83 to i32
  %85 = add nsw i32 %84, %79
  %or.cond19.i = icmp ult i32 %85, 5039
  br i1 %or.cond19.i, label %86, label %qc_hash_lookup.exit10.i

86:                                               ; preds = %NFKC_QC_hash_func.exit.i
  %87 = zext nneg i32 %85 to i64
  %88 = getelementptr inbounds nuw %struct.pg_unicode_normprops, ptr @UnicodeNormProps_NFKC_QC, i64 %87
  %89 = load i32, ptr %88, align 4
  %90 = and i32 %89, 2097151
  %.not11.i8.i = icmp eq i32 %8, %90
  %..i9.i = select i1 %.not11.i8.i, ptr %88, ptr null
  br label %qc_hash_lookup.exit10.i

qc_hash_lookup.exit10.i:                          ; preds = %86, %NFKC_QC_hash_func.exit.i
  %.0.i7.i = phi ptr [ null, %NFKC_QC_hash_func.exit.i ], [ %..i9.i, %86 ]
  call void @llvm.lifetime.end.p0(i64 4, ptr nonnull %3) #7
  br label %91

91:                                               ; preds = %qc_hash_lookup.exit10.i, %qc_hash_lookup.exit.i
  %.0.i35 = phi ptr [ %.0.i7.i, %qc_hash_lookup.exit10.i ], [ %.0.i.i, %qc_hash_lookup.exit.i ]
  %.not.i = icmp eq ptr %.0.i35, null
  br i1 %.not.i, label %qc_is_allowed.exit.thread, label %qc_is_allowed.exit

qc_is_allowed.exit:                               ; preds = %91
  %92 = load i32, ptr %.0.i35, align 4
  %93 = shl i32 %92, 7
  %94 = ashr i32 %93, 28
  switch i32 %94, label %qc_is_allowed.exit.thread [
    i32 0, label %.loopexit
    i32 -1, label %95
  ]

qc_is_allowed.exit.thread:                        ; preds = %38, %91, %qc_is_allowed.exit
  br label %95

95:                                               ; preds = %qc_is_allowed.exit, %qc_is_allowed.exit.thread
  %.227.ph = phi i32 [ %.02552, %qc_is_allowed.exit.thread ], [ %94, %qc_is_allowed.exit ]
  %96 = getelementptr inbounds nuw i8, ptr %.02951, i64 4
  %97 = load i32, ptr %96, align 4
  %.not = icmp eq i32 %97, 0
  br i1 %.not, label %.loopexit, label %.lr.ph, !llvm.loop !15

.loopexit:                                        ; preds = %get_canonical_class.exit, %qc_is_allowed.exit, %95, %.preheader, %2
  %.0 = phi i32 [ -1, %2 ], [ 1, %.preheader ], [ 0, %get_canonical_class.exit ], [ %94, %qc_is_allowed.exit ], [ %.227.ph, %95 ]
  ret i32 %.0
}